target datalayout = "e-m:e-p270:32:32-p271:32:32-p272:64:64-i64:64-i128:128-f80:128-n8:16:32:64-S128"
target triple = "x86_64-pc-linux-gnu"

%struct.QemuMutex = type { %union.pthread_mutex_t, i8 }
%union.pthread_mutex_t = type { %struct.__pthread_mutex_s }
%struct.__pthread_mutex_s = type { i32, i32, i32, i32, i32, i16, i16, %struct.__pthread_internal_list }
%struct.__pthread_internal_list = type { ptr, ptr }
%struct.QemuLockable = type { ptr, ptr, ptr }
%struct.BlockJob = type { %struct.Job, i32, i64, %struct.RateLimit, ptr, %struct.Notifier, %struct.Notifier, %struct.Notifier, %struct.Notifier, %struct.Notifier, ptr }
%struct.Job = type { ptr, ptr, ptr, i8, i8, ptr, ptr, %struct.ProgressMeter, ptr, i32, i32, %struct.QEMUTimer, i32, i8, i8, i8, i8, i8, i8, i32, ptr, %struct.NotifierList, %struct.NotifierList, %struct.NotifierList, %struct.NotifierList, %struct.NotifierList, %struct.anon.12, ptr, %struct.anon.13 }
%struct.ProgressMeter = type { i64, i64, %struct.QemuMutex }
%struct.QEMUTimer = type { i64, ptr, ptr, ptr, ptr, i32, i32 }
%struct.NotifierList = type { %struct.anon.11 }
%struct.anon.11 = type { ptr }
%struct.anon.12 = type { ptr, ptr }
%struct.anon.13 = type { ptr, ptr }
%struct.RateLimit = type { %struct.QemuMutex, i64, i64, i64, i64, i64 }
%struct.Notifier = type { ptr, %struct.anon.14 }
%struct.anon.14 = type { ptr, ptr }
%struct.timeval = type { i64, i64 }

@.str.1 = private unnamed_addr constant [19 x i8] c"../qemu/blockdev.c\00", align 1
@job_mutex = external global %struct.QemuMutex, align 8
@__func__.qmp_block_job_cancel = private unnamed_addr constant [21 x i8] c"qmp_block_job_cancel\00", align 1
@.str.116 = private unnamed_addr constant [50 x i8] c"The block job for device '%s' is currently paused\00", align 1
@trace_events_enabled_count = external global i32, align 4
@message_with_timestamp = external global i8, align 1
@qemu_loglevel = external global i32, align 4
@.str.247 = private unnamed_addr constant [11 x i8] c"id != NULL\00", align 1
@__PRETTY_FUNCTION__.find_block_job_locked = private unnamed_addr constant [56 x i8] c"BlockJob *find_block_job_locked(const char *, Error **)\00", align 1
@__func__.find_block_job_locked = private unnamed_addr constant [22 x i8] c"find_block_job_locked\00", align 1
@.str.248 = private unnamed_addr constant [25 x i8] c"Block job '%s' not found\00", align 1
@_TRACE_QMP_BLOCK_JOB_CANCEL_DSTATE = external global i16, align 2
@.str.249 = private unnamed_addr constant [42 x i8] c"%d@%zu.%06zu:qmp_block_job_cancel job %p\0A\00", align 1
@.str.250 = private unnamed_addr constant [29 x i8] c"qmp_block_job_cancel job %p\0A\00", align 1

; Function Attrs: inlinehint nounwind sspstrong uwtable
define internal void @qemu_lockable_unlock(ptr noundef %0) #5 {
  %2 = alloca ptr, align 8
  store ptr %0, ptr %2, align 8
  %3 = load ptr, ptr %2, align 8
  %4 = getelementptr inbounds nuw %struct.QemuLockable, ptr %3, i32 0, i32 2
  %5 = load ptr, ptr %4, align 8
  %6 = load ptr, ptr %2, align 8
  %7 = getelementptr inbounds nuw %struct.QemuLockable, ptr %6, i32 0, i32 0
  %8 = load ptr, ptr %7, align 8
  call void %5(ptr noundef %8)
  ret void
}

; Function Attrs: inlinehint nounwind sspstrong uwtable
define internal void @qemu_lockable_auto_unlock(ptr noundef %0) #5 {
  %2 = alloca ptr, align 8
  store ptr %0, ptr %2, align 8
  %3 = load ptr, ptr %2, align 8
  %4 = icmp ne ptr %3, null
  br i1 %4, label %5, label %7

5:                                                ; preds = %1
  %6 = load ptr, ptr %2, align 8
  call void @qemu_lockable_unlock(ptr noundef %6)
  br label %7

7:                                                ; preds = %5, %1
  ret void
}

; Function Attrs: inlinehint nounwind sspstrong uwtable
define internal zeroext i1 @qemu_loglevel_mask(i32 noundef %0) #5 {
  %2 = alloca i32, align 4
  store i32 %0, ptr %2, align 4
  %3 = load i32, ptr @qemu_loglevel, align 4
  %4 = load i32, ptr %2, align 4
  %5 = and i32 %3, %4
  %6 = icmp ne i32 %5, 0
  ret i1 %6
}

; Function Attrs: inlinehint nounwind sspstrong uwtable
define internal void @glib_autoptr_clear_QemuLockable(ptr noundef %0) #5 {
  %2 = alloca ptr, align 8
  store ptr %0, ptr %2, align 8
  %3 = load ptr, ptr %2, align 8
  %4 = icmp ne ptr %3, null
  br i1 %4, label %5, label %7

5:                                                ; preds = %1
  %6 = load ptr, ptr %2, align 8
  call void @qemu_lockable_auto_unlock(ptr noundef %6)
  br label %7

7:                                                ; preds = %5, %1
  ret void
}

; Function Attrs: inlinehint nounwind sspstrong uwtable
define internal void @_nocheck__trace_qmp_block_job_cancel(ptr noundef %0) #5 {
  %2 = alloca ptr, align 8
  %3 = alloca %struct.timeval, align 8
  store ptr %0, ptr %2, align 8
  %4 = load i32, ptr @trace_events_enabled_count, align 4
  %5 = icmp ne i32 %4, 0
  %6 = xor i1 %5, true
  %7 = xor i1 %6, true
  %8 = zext i1 %7 to i32
  %9 = sext i32 %8 to i64
  %10 = call i64 @llvm.expect.i64(i64 %9, i64 0)
  %11 = icmp ne i64 %10, 0
  br i1 %11, label %12, label %32

12:                                               ; preds = %1
  %13 = load i16, ptr @_TRACE_QMP_BLOCK_JOB_CANCEL_DSTATE, align 2
  %14 = zext i16 %13 to i32
  %15 = icmp ne i32 %14, 0
  br i1 %15, label %16, label %32

16:                                               ; preds = %12
  %17 = call zeroext i1 @qemu_loglevel_mask(i32 noundef 32768)
  br i1 %17, label %18, label %32

18:                                               ; preds = %16
  %19 = load i8, ptr @message_with_timestamp, align 1, !range !7, !noundef !8
  %20 = trunc i8 %19 to i1
  br i1 %20, label %21, label %29

21:                                               ; preds = %18
  call void @llvm.lifetime.start.p0(i64 16, ptr %3) #16
  call void @llvm.memset.p0.i64(ptr align 8 %3, i8 0, i64 16, i1 false), !annotation !4
  %22 = call i32 @gettimeofday(ptr noundef %3, ptr noundef null) #16
  %23 = call i32 @qemu_get_thread_id()
  %24 = getelementptr inbounds nuw %struct.timeval, ptr %3, i32 0, i32 0
  %25 = load i64, ptr %24, align 8
  %26 = getelementptr inbounds nuw %struct.timeval, ptr %3, i32 0, i32 1
  %27 = load i64, ptr %26, align 8
  %28 = load ptr, ptr %2, align 8
  call void (ptr, ...) @qemu_log(ptr noundef @.str.249, i32 noundef %23, i64 noundef %25, i64 noundef %27, ptr noundef %28)
  call void @llvm.lifetime.end.p0(i64 16, ptr %3) #16
  br label %31

29:                                               ; preds = %18
  %30 = load ptr, ptr %2, align 8
  call void (ptr, ...) @qemu_log(ptr noundef @.str.250, ptr noundef %30)
  br label %31

31:                                               ; preds = %29, %21
  br label %32

32:                                               ; preds = %31, %16, %12, %1
  ret void
}

; Function Attrs: inlinehint nounwind sspstrong uwtable
define internal void @qemu_lockable_lock(ptr noundef %0) #5 {
  %2 = alloca ptr, align 8
  store ptr %0, ptr %2, align 8
  %3 = load ptr, ptr %2, align 8
  %4 = getelementptr inbounds nuw %struct.QemuLockable, ptr %3, i32 0, i32 1
  %5 = load ptr, ptr %4, align 8
  %6 = load ptr, ptr %2, align 8
  %7 = getelementptr inbounds nuw %struct.QemuLockable, ptr %6, i32 0, i32 0
  %8 = load ptr, ptr %7, align 8
  call void %5(ptr noundef %8)
  ret void
}

; Function Attrs: inlinehint nounwind sspstrong uwtable
define internal void @glib_autoptr_cleanup_QemuLockable(ptr noundef %0) #5 {
  %2 = alloca ptr, align 8
  store ptr %0, ptr %2, align 8
  %3 = load ptr, ptr %2, align 8
  %4 = load ptr, ptr %3, align 8
  call void @glib_autoptr_clear_QemuLockable(ptr noundef %4)
  ret void
}

; Function Attrs: inlinehint nounwind sspstrong uwtable
define internal void @trace_qmp_block_job_cancel(ptr noundef %0) #5 {
  %2 = alloca ptr, align 8
  store ptr %0, ptr %2, align 8
  %3 = load ptr, ptr %2, align 8
  call void @_nocheck__trace_qmp_block_job_cancel(ptr noundef %3)
  ret void
}

; Function Attrs: nounwind sspstrong uwtable
define internal ptr @find_block_job_locked(ptr noundef %0, ptr noundef %1) #0 {
  %3 = alloca ptr, align 8
  %4 = alloca ptr, align 8
  %5 = alloca ptr, align 8
  %6 = alloca ptr, align 8
  %7 = alloca i32, align 4
  store ptr %0, ptr %4, align 8
  store ptr %1, ptr %5, align 8
  call void @llvm.lifetime.start.p0(i64 8, ptr %6) #16
  store ptr null, ptr %6, align 8, !annotation !4
  %8 = load ptr, ptr %4, align 8
  %9 = icmp ne ptr %8, null
  br i1 %9, label %10, label %11

10:                                               ; preds = %2
  br label %12

11:                                               ; preds = %2
  call void @__assert_fail(ptr noundef @.str.247, ptr noundef @.str.1, i32 noundef 3137, ptr noundef @__PRETTY_FUNCTION__.find_block_job_locked) #15
  unreachable

12:                                               ; preds = %10
  %13 = load ptr, ptr %4, align 8
  %14 = call ptr @block_job_get_locked(ptr noundef %13)
  store ptr %14, ptr %6, align 8
  %15 = load ptr, ptr %6, align 8
  %16 = icmp ne ptr %15, null
  br i1 %16, label %20, label %17

17:                                               ; preds = %12
  %18 = load ptr, ptr %5, align 8
  %19 = load ptr, ptr %4, align 8
  call void (ptr, ptr, i32, ptr, i32, ptr, ...) @error_set_internal(ptr noundef %18, ptr noundef @.str.1, i32 noundef 3143, ptr noundef @__func__.find_block_job_locked, i32 noundef 2, ptr noundef @.str.248, ptr noundef %19)
  store ptr null, ptr %3, align 8
  store i32 1, ptr %7, align 4
  br label %22

20:                                               ; preds = %12
  %21 = load ptr, ptr %6, align 8
  store ptr %21, ptr %3, align 8
  store i32 1, ptr %7, align 4
  br label %22

22:                                               ; preds = %20, %17
  call void @llvm.lifetime.end.p0(i64 8, ptr %6) #16
  %23 = load ptr, ptr %3, align 8
  ret ptr %23
}

; Function Attrs: inlinehint nounwind sspstrong uwtable
define internal ptr @qemu_lockable_auto_lock(ptr noundef %0) #5 {
  %2 = alloca ptr, align 8
  store ptr %0, ptr %2, align 8
  %3 = load ptr, ptr %2, align 8
  call void @qemu_lockable_lock(ptr noundef %3)
  %4 = load ptr, ptr %2, align 8
  ret ptr %4
}

; Function Attrs: alwaysinline nounwind sspstrong uwtable
define internal ptr @qemu_make_lockable(ptr noundef %0, ptr noundef %1) #6 {
  %3 = alloca ptr, align 8
  %4 = alloca ptr, align 8
  store ptr %0, ptr %3, align 8
  store ptr %1, ptr %4, align 8
  %5 = load ptr, ptr %3, align 8
  %6 = icmp ne ptr %5, null
  br i1 %6, label %7, label %9

7:                                                ; preds = %2
  %8 = load ptr, ptr %4, align 8
  br label %10

9:                                                ; preds = %2
  br label %10

10:                                               ; preds = %9, %7
  %11 = phi ptr [ %8, %7 ], [ null, %9 ]
  ret ptr %11
}

; Function Attrs: nounwind sspstrong uwtable
define dso_local void @qmp_block_job_cancel(ptr noundef %0, i1 noundef zeroext %1, i1 noundef zeroext %2, ptr noundef %3) #0 {
  %5 = alloca ptr, align 8
  %6 = alloca i8, align 1
  %7 = alloca i8, align 1
  %8 = alloca ptr, align 8
  %9 = alloca ptr, align 8
  %10 = alloca ptr, align 8
  %11 = alloca %struct.QemuLockable, align 8
  %12 = alloca i32, align 4
  store ptr %0, ptr %5, align 8
  %13 = zext i1 %1 to i8
  store i8 %13, ptr %6, align 1
  %14 = zext i1 %2 to i8
  store i8 %14, ptr %7, align 1
  store ptr %3, ptr %8, align 8
  call void @llvm.lifetime.start.p0(i64 8, ptr %9) #16
  store ptr null, ptr %9, align 8, !annotation !4
  call void @llvm.lifetime.start.p0(i64 8, ptr %10) #16
  %15 = getelementptr inbounds nuw %struct.QemuLockable, ptr %11, i32 0, i32 0
  store ptr @job_mutex, ptr %15, align 8
  %16 = getelementptr inbounds nuw %struct.QemuLockable, ptr %11, i32 0, i32 1
  store ptr @qemu_lockable_mutex_lock, ptr %16, align 8
  %17 = getelementptr inbounds nuw %struct.QemuLockable, ptr %11, i32 0, i32 2
  store ptr @qemu_lockable_mutex_unlock, ptr %17, align 8
  %18 = call ptr @qemu_make_lockable(ptr noundef @job_mutex, ptr noundef %11)
  %19 = call ptr @qemu_lockable_auto_lock(ptr noundef %18)
  store ptr %19, ptr %10, align 8
  %20 = load ptr, ptr %5, align 8
  %21 = load ptr, ptr %8, align 8
  %22 = call ptr @find_block_job_locked(ptr noundef %20, ptr noundef %21)
  store ptr %22, ptr %9, align 8
  %23 = load ptr, ptr %9, align 8
  %24 = icmp ne ptr %23, null
  br i1 %24, label %26, label %25

25:                                               ; preds = %4
  store i32 1, ptr %12, align 4
  br label %47

26:                                               ; preds = %4
  %27 = load i8, ptr %6, align 1, !range !7, !noundef !8
  %28 = trunc i8 %27 to i1
  br i1 %28, label %30, label %29

29:                                               ; preds = %26
  store i8 0, ptr %7, align 1
  br label %30

30:                                               ; preds = %29, %26
  %31 = load ptr, ptr %9, align 8
  %32 = getelementptr inbounds nuw %struct.BlockJob, ptr %31, i32 0, i32 0
  %33 = call zeroext i1 @job_user_paused_locked(ptr noundef %32)
  br i1 %33, label %34, label %40

34:                                               ; preds = %30
  %35 = load i8, ptr %7, align 1, !range !7, !noundef !8
  %36 = trunc i8 %35 to i1
  br i1 %36, label %40, label %37

37:                                               ; preds = %34
  %38 = load ptr, ptr %8, align 8
  %39 = load ptr, ptr %5, align 8
  call void (ptr, ptr, i32, ptr, ptr, ...) @error_setg_internal(ptr noundef %38, ptr noundef @.str.1, i32 noundef 3182, ptr noundef @__func__.qmp_block_job_cancel, ptr noundef @.str.116, ptr noundef %39)
  store i32 1, ptr %12, align 4
  br label %47

40:                                               ; preds = %34, %30
  %41 = load ptr, ptr %9, align 8
  call void @trace_qmp_block_job_cancel(ptr noundef %41)
  %42 = load ptr, ptr %9, align 8
  %43 = getelementptr inbounds nuw %struct.BlockJob, ptr %42, i32 0, i32 0
  %44 = load i8, ptr %7, align 1, !range !7, !noundef !8
  %45 = trunc i8 %44 to i1
  %46 = load ptr, ptr %8, align 8
  call void @job_user_cancel_locked(ptr noundef %43, i1 noundef zeroext %45, ptr noundef %46)
  store i32 0, ptr %12, align 4
  br label %47

47:                                               ; preds = %40, %37, %25
  call void @glib_autoptr_cleanup_QemuLockable(ptr noundef %10)
  call void @llvm.lifetime.end.p0(i64 8, ptr %10) #16
  call void @llvm.lifetime.end.p0(i64 8, ptr %9) #16
  %48 = load i32, ptr %12, align 4
  switch i32 %48, label %50 [
    i32 0, label %49
    i32 1, label %49
  ]

49:                                               ; preds = %47, %47
  ret void

50:                                               ; preds = %47
  unreachable
}