; Function Attrs: nounwind sspstrong uwtable
define dso_local void @qmp_block_job_cancel(ptr noundef %0, i1 noundef zeroext %1, i1 noundef zeroext %2, ptr noundef %3) local_unnamed_addr #0 {
  %5 = alloca %struct.timeval, align 8
  %6 = load atomic i64, ptr @qemu_mutex_lock_func monotonic, align 8
  %7 = inttoptr i64 %6 to ptr
  tail call void %7(ptr noundef nonnull @job_mutex, ptr noundef nonnull @.str.183, i32 noundef 56) #14
  %.not.i = icmp eq ptr %0, null
  br i1 %.not.i, label %8, label %9

8:                                                ; preds = %4
  tail call void @__assert_fail(ptr noundef nonnull @.str.247, ptr noundef nonnull @.str.1, i32 noundef 3137, ptr noundef nonnull @__PRETTY_FUNCTION__.find_block_job_locked) #15
  unreachable

9:                                                ; preds = %4
  %10 = tail call ptr @block_job_get_locked(ptr noundef nonnull %0) #14
  %.not9.i = icmp eq ptr %10, null
  br i1 %.not9.i, label %find_block_job_locked.exit.thread, label %find_block_job_locked.exit

find_block_job_locked.exit.thread:                ; preds = %9
  tail call void (ptr, ptr, i32, ptr, i32, ptr, ...) @error_set_internal(ptr noundef %3, ptr noundef nonnull @.str.1, i32 noundef 3143, ptr noundef nonnull @__func__.find_block_job_locked, i32 noundef 2, ptr noundef nonnull @.str.248, ptr noundef nonnull %0) #14
  br label %glib_autoptr_cleanup_QemuLockable.exit

find_block_job_locked.exit:                       ; preds = %9
  %spec.select = and i1 %1, %2
  %11 = tail call zeroext i1 @job_user_paused_locked(ptr noundef nonnull %10) #14
  %.not12 = xor i1 %11, true
  %brmerge = or i1 %spec.select, %.not12
  br i1 %brmerge, label %13, label %12

12:                                               ; preds = %find_block_job_locked.exit
  tail call void (ptr, ptr, i32, ptr, ptr, ...) @error_setg_internal(ptr noundef %3, ptr noundef nonnull @.str.1, i32 noundef 3182, ptr noundef nonnull @__func__.qmp_block_job_cancel, ptr noundef nonnull @.str.116, ptr noundef nonnull %0) #14
  br label %glib_autoptr_cleanup_QemuLockable.exit

13:                                               ; preds = %find_block_job_locked.exit
  %14 = load i32, ptr @trace_events_enabled_count, align 4
  %.not.i.i = icmp eq i32 %14, 0
  br i1 %.not.i.i, label %trace_qmp_block_job_cancel.exit, label %15, !prof !21

15:                                               ; preds = %13
  %16 = load i16, ptr @_TRACE_QMP_BLOCK_JOB_CANCEL_DSTATE, align 2
  %.not2.i.i = icmp eq i16 %16, 0
  br i1 %.not2.i.i, label %trace_qmp_block_job_cancel.exit, label %17

17:                                               ; preds = %15
  %18 = load i32, ptr @qemu_loglevel, align 4
  %19 = and i32 %18, 32768
  %.not3.i.i = icmp eq i32 %19, 0
  br i1 %.not3.i.i, label %trace_qmp_block_job_cancel.exit, label %20

20:                                               ; preds = %17
  %21 = load i8, ptr @message_with_timestamp, align 1, !range !6, !noundef !7
  %22 = trunc nuw i8 %21 to i1
  br i1 %22, label %23, label %29

23:                                               ; preds = %20
  call void @llvm.lifetime.start.p0(i64 16, ptr nonnull %5) #14
  call void @llvm.memset.p0.i64(ptr noundef nonnull align 8 dereferenceable(16) %5, i8 0, i64 16, i1 false), !annotation !10
  %24 = call i32 @gettimeofday(ptr noundef nonnull %5, ptr noundef null) #14
  %25 = tail call i32 @qemu_get_thread_id() #14
  %26 = load i64, ptr %5, align 8
  %27 = getelementptr inbounds nuw i8, ptr %5, i64 8
  %28 = load i64, ptr %27, align 8
  tail call void (ptr, ...) @qemu_log(ptr noundef nonnull @.str.249, i32 noundef %25, i64 noundef %26, i64 noundef %28, ptr noundef nonnull %10) #14
  call void @llvm.lifetime.end.p0(i64 16, ptr nonnull %5) #14
  br label %trace_qmp_block_job_cancel.exit

29:                                               ; preds = %20
  tail call void (ptr, ...) @qemu_log(ptr noundef nonnull @.str.250, ptr noundef nonnull %10) #14
  br label %trace_qmp_block_job_cancel.exit

trace_qmp_block_job_cancel.exit:                  ; preds = %13, %15, %17, %23, %29
  tail call void @job_user_cancel_locked(ptr noundef nonnull %10, i1 noundef zeroext %spec.select, ptr noundef %3) #14
  br label %glib_autoptr_cleanup_QemuLockable.exit

glib_autoptr_cleanup_QemuLockable.exit:           ; preds = %find_block_job_locked.exit.thread, %trace_qmp_block_job_cancel.exit, %12
  tail call void @qemu_mutex_unlock_impl(ptr noundef nonnull @job_mutex, ptr noundef nonnull @.str.183, i32 noundef 56) #14
  ret void
}